Certificate:
    Data:
        Version: 3 (0x2)
        Serial Number:
            48:5a:94:94:51:de:97:11:3b:62:54:dd:ac:85:63:e6:40:5c:4c:f6
        Signature Algorithm: sha256WithRSAEncryption
        Issuer: C=US, ST=CO, L=Boulder, O=Helm, CN=helm.sh
        Validity
            Not Before: Aug 24 18:07:59 2022 GMT
            Not After : Aug 21 18:07:59 2032 GMT
        Subject: C=US, ST=CO, L=Boulder, O=Helm, CN=helm.sh
        Subject Public Key Info:
            Public Key Algorithm: rsaEncryption
                RSA Public-Key: (2048 bit)
                Modulus:
                    00:c8:89:55:0d:0b:f1:da:e6:c0:70:7d:d3:27:cd:
                    b8:a8:81:8b:7c:a4:89:e5:d1:b1:78:01:1d:df:44:
                    88:0b:fc:d6:81:35:3d:d1:3b:5e:8f:bb:93:b3:7e:
                    28:db:ed:ff:a0:13:3a:70:a3:fe:94:6b:0b:fe:fb:
                    63:00:b0:cb:dc:81:cd:80:dc:d0:2f:bf:b2:4f:9a:
                    81:d4:22:dc:97:c8:8f:27:86:59:91:fa:92:05:75:
                    c4:cc:6b:f5:a9:6b:74:1e:f5:db:a9:f8:bf:8c:a2:
                    25:fd:a0:cc:79:f4:25:57:74:a9:23:9b:e2:b7:22:
                    7a:14:7a:3d:ea:f1:7e:32:6b:57:6c:2e:c6:4f:75:
                    54:f9:6b:54:d2:ca:eb:54:1c:af:39:15:9b:d0:7c:
                    0f:f8:55:51:04:ea:da:fa:7b:8b:63:0f:ac:39:b1:
                    f6:4b:8e:4e:f6:ea:e9:7b:e6:ba:5e:5a:8e:91:ef:
                    dc:b1:7d:52:3f:73:83:52:46:83:48:49:ff:f2:2d:
                    ca:54:f2:36:bb:49:cc:59:99:c0:9e:cf:8e:78:55:
                    6c:ed:7d:7e:83:b8:59:2c:7d:f8:1a:81:f0:7d:f5:
                    27:f2:db:ae:d4:31:54:38:fe:47:b2:ee:16:20:0f:
                    f1:db:2d:28:bf:6f:38:eb:11:bb:9a:d4:b2:5a:3a:
                    4a:7f
                Exponent: 65537 (0x10001)
        X509v3 extensions:
            X509v3 Subject Alternative Name: 
                DNS:helm.sh, IP Address:127.0.0.1
    Signature Algorithm: sha256WithRSAEncryption
         d9:95:3b:98:01:6c:cb:a2:92:d8:f7:a7:52:2c:00:c1:04:cd:
         ef:1b:d8:fa:71:71:29:7d:1d:29:42:ea:03:ce:15:c6:d5:ee:
         2d:25:51:7e:96:8b:44:2e:d9:19:1b:95:a6:9c:92:52:2b:88:
         d8:76:6e:1b:87:36:8e:3a:b1:c6:aa:a4:7a:4e:a9:8b:8d:c0:
         3c:77:95:81:db:9a:50:f4:fb:cc:62:21:36:36:91:3b:6c:6e:
         37:a8:fa:cc:21:56:f4:31:6f:07:2b:29:0e:1a:06:6c:10:87:
         fa:6c:be:e1:29:8c:b9:84:b2:ea:4d:07:e8:2b:ff:f6:24:e6:
         a6:95:72:c7:d8:02:53:c2:c0:68:d3:fc:e9:72:a5:da:6c:39:
         5a:6b:17:71:86:40:96:ac:94:dd:21:45:9e:aa:85:8a:73:4c:
         8c:3f:0d:2b:d0:8b:04:ef:61:bb:8e:06:6b:86:46:30:a3:64:
         6b:97:01:8b:46:56:7d:42:33:f5:e0:ea:fd:80:b4:8a:50:a8:
         20:2c:f9:ad:61:05:da:ff:b9:b5:da:9c:d6:0e:47:44:0c:9a:
         8f:11:e0:66:f8:76:0c:0f:43:99:6b:af:44:3c:5c:cb:30:98:
         6a:24:f7:ea:23:db:cf:23:35:dd:6c:2e:9d:0a:b0:82:77:b8:
         dc:90:5f:78
-----BEGIN CERTIFICATE-----
MIIDRDCCAiygAwIBAgIUSFqUlFHelxE7YlTdrIVj5kBcTPYwDQYJKoZIhvcNAQEL
BQAwTTELMAkGA1UEBhMCVVMxCzAJBgNVBAgMAkNPMRAwDgYDVQQHDAdCb3VsZGVy
MQ0wCwYDVQQKDARIZWxtMRAwDgYDVQQDDAdoZWxtLnNoMB4XDTIyMDgyNDE4MDc1
OVoXDTMyMDgyMTE4MDc1OVowTTELMAkGA1UEBhMCVVMxCzAJBgNVBAgMAkNPMRAw
DgYDVQQHDAdCb3VsZGVyMQ0wCwYDVQQKDARIZWxtMRAwDgYDVQQDDAdoZWxtLnNo
MIIBIjANBgkqhkiG9w0BAQEFAAOCAQ8AMIIBCgKCAQEAyIlVDQvx2ubAcH3TJ824
qIGLfKSJ5dGxeAEd30SIC/zWgTU90Ttej7uTs34o2+3/oBM6cKP+lGsL/vtjALDL
3IHNgNzQL7+yT5qB1CLcl8iPJ4ZZkfqSBXXEzGv1qWt0HvXbqfi/jKIl/aDMefQl
V3SpI5vityJ6FHo96vF+MmtXbC7GT3VU+WtU0srrVByvORWb0HwP+FVRBOra+nuL
Yw+sObH2S45O9urpe+a6XlqOke/csX1SP3ODUkaDSEn/8i3KVPI2u0nMWZnAns+O
eFVs7X1+g7hZLH34GoHwffUn8tuu1DFUOP5Hsu4WIA/x2y0ov2846xG7mtSyWjpK
fwIDAQABoxwwGjAYBgNVHREEETAPggdoZWxtLnNohwR/AAABMA0GCSqGSIb3DQEB
CwUAA4IBAQDZlTuYAWzLopLY96dSLADBBM3vG9j6cXEpfR0pQuoDzhXG1e4tJVF+
lotELtkZG5WmnJJSK4jYdm4bhzaOOrHGqqR6TqmLjcA8d5WB25pQ9PvMYiE2NpE7
bG43qPrMIVb0MW8HKykOGgZsEIf6bL7hKYy5hLLqTQfoK//2JOamlXLH2AJTwsBo
0/zpcqXabDlaaxdxhkCWrJTdIUWeqoWKc0yMPw0r0IsE72G7jgZrhkYwo2RrlwGL
RlZ9QjP14Or9gLSKUKggLPmtYQXa/7m12pzWDkdEDJqPEeBm+HYMD0OZa69EPFzL
MJhqJPfqI9vPIzXdbC6dCrCCd7jckF94
-----END CERTIFICATE-----
