Certificate:
    Data:
        Version: 3 (0x2)
        Serial Number:
            67:fc:01:9f:43:a7:bb:cc:41:8e:bf:41:95:a9:e9:fb:3e:a0:89:f3
        Signature Algorithm: sha256WithRSAEncryption
        Issuer: C=US, ST=CO, L=Boulder, O=Helm, CN=helm.sh
        Validity
            Not Before: Nov  6 10:45:30 2023 GMT
            Not After : Nov  3 10:45:30 2033 GMT
        Subject: C=US, ST=CO, L=Boulder, O=Helm, CN=helm.sh
        Subject Public Key Info:
            Public Key Algorithm: rsaEncryption
                Public-Key: (2048 bit)
                Modulus:
                    00:c8:89:55:0d:0b:f1:da:e6:c0:70:7d:d3:27:cd:
                    b8:a8:81:8b:7c:a4:89:e5:d1:b1:78:01:1d:df:44:
                    88:0b:fc:d6:81:35:3d:d1:3b:5e:8f:bb:93:b3:7e:
                    28:db:ed:ff:a0:13:3a:70:a3:fe:94:6b:0b:fe:fb:
                    63:00:b0:cb:dc:81:cd:80:dc:d0:2f:bf:b2:4f:9a:
                    81:d4:22:dc:97:c8:8f:27:86:59:91:fa:92:05:75:
                    c4:cc:6b:f5:a9:6b:74:1e:f5:db:a9:f8:bf:8c:a2:
                    25:fd:a0:cc:79:f4:25:57:74:a9:23:9b:e2:b7:22:
                    7a:14:7a:3d:ea:f1:7e:32:6b:57:6c:2e:c6:4f:75:
                    54:f9:6b:54:d2:ca:eb:54:1c:af:39:15:9b:d0:7c:
                    0f:f8:55:51:04:ea:da:fa:7b:8b:63:0f:ac:39:b1:
                    f6:4b:8e:4e:f6:ea:e9:7b:e6:ba:5e:5a:8e:91:ef:
                    dc:b1:7d:52:3f:73:83:52:46:83:48:49:ff:f2:2d:
                    ca:54:f2:36:bb:49:cc:59:99:c0:9e:cf:8e:78:55:
                    6c:ed:7d:7e:83:b8:59:2c:7d:f8:1a:81:f0:7d:f5:
                    27:f2:db:ae:d4:31:54:38:fe:47:b2:ee:16:20:0f:
                    f1:db:2d:28:bf:6f:38:eb:11:bb:9a:d4:b2:5a:3a:
                    4a:7f
                Exponent: 65537 (0x10001)
        X509v3 extensions:
            X509v3 Subject Alternative Name: 
                DNS:localhost
            X509v3 Subject Key Identifier: 
                62:48:0B:D0:F1:4E:A4:45:69:08:1A:DB:78:E7:6C:19:C4:52:88:B6
            X509v3 Authority Key Identifier: 
                89:C0:05:C4:32:17:69:9B:91:76:97:37:0F:6E:B9:CC:E7:1E:04:34
    Signature Algorithm: sha256WithRSAEncryption
    Signature Value:
        41:fe:c0:41:97:34:55:61:bf:64:92:10:9b:77:66:df:5a:b7:
        bd:ff:8e:83:15:07:9b:7a:90:31:86:2c:ae:64:68:a4:c0:7b:
        65:39:9b:4a:60:aa:85:f3:55:e4:7d:04:0c:9f:71:91:ee:fb:
        9c:c2:36:74:68:ce:76:b0:bb:22:c0:c3:57:76:4a:69:fb:90:
        b3:a9:be:97:73:4d:07:20:34:e3:36:94:ba:c3:be:a0:f5:e3:
        48:00:57:3c:11:0d:80:cc:8d:a7:fc:a6:5b:44:80:30:f5:46:
        b1:ea:ff:2f:1e:cf:88:57:3f:8a:fa:16:f2:2d:b6:9d:d1:23:
        ba:df:2a:05:e5:09:d3:a9:de:47:31:0b:32:95:99:fa:6d:32:
        d9:26:60:87:01:87:f5:24:85:9a:04:f2:55:15:96:d2:59:8e:
        76:be:c7:18:6d:53:52:bf:e6:23:35:9e:43:2f:59:21:ca:4d:
        67:e6:b8:f4:82:2e:e9:85:7d:fd:47:31:94:5e:ff:2c:5a:1a:
        09:da:3d:00:df:63:37:ec:ad:2e:c5:a7:bc:0c:28:d3:ca:19:
        e6:b6:e2:99:a3:c8:da:53:4a:1b:da:19:a6:74:b9:26:65:f6:
        d6:16:cf:a4:7b:cd:60:80:af:24:3a:7d:d1:0b:7b:de:bc:33:
        67:69:5c:d2
-----BEGIN CERTIFICATE-----
MIIDgDCCAmigAwIBAgIUZ/wBn0Onu8xBjr9Blanp+z6gifMwDQYJKoZIhvcNAQEL
BQAwTTELMAkGA1UEBhMCVVMxCzAJBgNVBAgMAkNPMRAwDgYDVQQHDAdCb3VsZGVy
MQ0wCwYDVQQKDARIZWxtMRAwDgYDVQQDDAdoZWxtLnNoMB4XDTIzMTEwNjEwNDUz
MFoXDTMzMTEwMzEwNDUzMFowTTELMAkGA1UEBhMCVVMxCzAJBgNVBAgMAkNPMRAw
DgYDVQQHDAdCb3VsZGVyMQ0wCwYDVQQKDARIZWxtMRAwDgYDVQQDDAdoZWxtLnNo
MIIBIjANBgkqhkiG9w0BAQEFAAOCAQ8AMIIBCgKCAQEAyIlVDQvx2ubAcH3TJ824
qIGLfKSJ5dGxeAEd30SIC/zWgTU90Ttej7uTs34o2+3/oBM6cKP+lGsL/vtjALDL
3IHNgNzQL7+yT5qB1CLcl8iPJ4ZZkfqSBXXEzGv1qWt0HvXbqfi/jKIl/aDMefQl
V3SpI5vityJ6FHo96vF+MmtXbC7GT3VU+WtU0srrVByvORWb0HwP+FVRBOra+nuL
Yw+sObH2S45O9urpe+a6XlqOke/csX1SP3ODUkaDSEn/8i3KVPI2u0nMWZnAns+O
eFVs7X1+g7hZLH34GoHwffUn8tuu1DFUOP5Hsu4WIA/x2y0ov2846xG7mtSyWjpK
fwIDAQABo1gwVjAUBgNVHREEDTALgglsb2NhbGhvc3QwHQYDVR0OBBYEFGJIC9Dx
TqRFaQga23jnbBnEUoi2MB8GA1UdIwQYMBaAFInABcQyF2mbkXaXNw9uucznHgQ0
MA0GCSqGSIb3DQEBCwUAA4IBAQBB/sBBlzRVYb9kkhCbd2bfWre9/46DFQebepAx
hiyuZGikwHtlOZtKYKqF81XkfQQMn3GR7vucwjZ0aM52sLsiwMNXdkpp+5Czqb6X
c00HIDTjNpS6w76g9eNIAFc8EQ2AzI2n/KZbRIAw9Uax6v8vHs+IVz+K+hbyLbad
0SO63yoF5QnTqd5HMQsylZn6bTLZJmCHAYf1JIWaBPJVFZbSWY52vscYbVNSv+Yj
NZ5DL1khyk1n5rj0gi7phX39RzGUXv8sWhoJ2j0A32M37K0uxae8DCjTyhnmtuKZ
o8jaU0ob2hmmdLkmZfbWFs+ke81ggK8kOn3RC3vevDNnaVzS
-----END CERTIFICATE-----
